; Function Attrs: nounwind uwtable
define ptr @l_Lean_Server_References_findRange_x3f(ptr noundef readonly captures(none) %0, ptr noundef %1, ptr noundef %2, i8 noundef zeroext %3) local_unnamed_addr #0 {
  %5 = tail call ptr @l_Lean_Server_References_getModuleRefs_x3f(ptr noundef %0, ptr noundef %1)
  %6 = ptrtoint ptr %5 to i64
  %7 = and i64 %6, 1
  %.not.i22 = icmp eq i64 %7, 0
  br i1 %.not.i22, label %11, label %8

8:                                                ; preds = %4
  %9 = lshr i64 %6, 1
  %10 = trunc i64 %9 to i32
  br label %lean_obj_tag.exit

11:                                               ; preds = %4
  %12 = getelementptr i8, ptr %5, i64 4
  %.val.i = load i32, ptr %12, align 4
  %13 = lshr i32 %.val.i, 24
  br label %lean_obj_tag.exit

lean_obj_tag.exit:                                ; preds = %8, %11
  %.0.i = phi i32 [ %10, %8 ], [ %13, %11 ]
  %14 = icmp eq i32 %.0.i, 0
  br i1 %14, label %15, label %25

15:                                               ; preds = %lean_obj_tag.exit
  %16 = ptrtoint ptr %2 to i64
  %17 = and i64 %16, 1
  %.not30 = icmp eq i64 %17, 0
  br i1 %.not30, label %18, label %lean_dec.exit17

18:                                               ; preds = %15
  %19 = load i32, ptr %2, align 4, !tbaa !8
  %20 = icmp sgt i32 %19, 1
  br i1 %20, label %21, label %23, !prof !11

21:                                               ; preds = %18
  %22 = add nsw i32 %19, -1
  store i32 %22, ptr %2, align 4, !tbaa !8
  br label %lean_dec.exit17

23:                                               ; preds = %18
  %.not.i = icmp eq i32 %19, 0
  br i1 %.not.i, label %lean_dec.exit17, label %24

24:                                               ; preds = %23
  tail call void @lean_dec_ref_cold(ptr noundef nonnull %2) #8
  br label %lean_dec.exit17

25:                                               ; preds = %lean_obj_tag.exit
  %26 = getelementptr inbounds nuw i8, ptr %5, i64 8
  %27 = load ptr, ptr %26, align 8, !tbaa !4
  %28 = ptrtoint ptr %27 to i64
  %29 = and i64 %28, 1
  %.not = icmp eq i64 %29, 0
  br i1 %.not, label %30, label %lean_inc.exit15

30:                                               ; preds = %25
  %.val.i23 = load i32, ptr %27, align 4, !tbaa !8
  %31 = icmp sgt i32 %.val.i23, 0
  br i1 %31, label %32, label %34, !prof !11

32:                                               ; preds = %30
  %33 = add nuw i32 %.val.i23, 1
  store i32 %33, ptr %27, align 4, !tbaa !8
  br label %lean_inc.exit15

34:                                               ; preds = %30
  %.not.i24 = icmp eq i32 %.val.i23, 0
  br i1 %.not.i24, label %lean_inc.exit15, label %35

35:                                               ; preds = %34
  tail call void @lean_inc_ref_cold(ptr noundef nonnull %27) #8
  br label %lean_inc.exit15

lean_inc.exit15:                                  ; preds = %35, %34, %32, %25
  br i1 %.not.i22, label %36, label %lean_dec.exit16

36:                                               ; preds = %lean_inc.exit15
  %37 = load i32, ptr %5, align 4, !tbaa !8
  %38 = icmp sgt i32 %37, 1
  br i1 %38, label %39, label %41, !prof !11

39:                                               ; preds = %36
  %40 = add nsw i32 %37, -1
  store i32 %40, ptr %5, align 4, !tbaa !8
  br label %lean_dec.exit16

41:                                               ; preds = %36
  %.not.i18 = icmp eq i32 %37, 0
  br i1 %.not.i18, label %lean_dec.exit16, label %42

42:                                               ; preds = %41
  tail call void @lean_dec_ref_cold(ptr noundef nonnull %5) #8
  br label %lean_dec.exit16

lean_dec.exit16:                                  ; preds = %42, %41, %39, %lean_inc.exit15
  %43 = getelementptr inbounds nuw i8, ptr %27, i64 16
  %44 = load ptr, ptr %43, align 8, !tbaa !4
  %45 = ptrtoint ptr %44 to i64
  %46 = and i64 %45, 1
  %.not29 = icmp eq i64 %46, 0
  br i1 %.not29, label %47, label %lean_inc.exit

47:                                               ; preds = %lean_dec.exit16
  %.val.i25 = load i32, ptr %44, align 4, !tbaa !8
  %48 = icmp sgt i32 %.val.i25, 0
  br i1 %48, label %49, label %51, !prof !11

49:                                               ; preds = %47
  %50 = add nuw i32 %.val.i25, 1
  store i32 %50, ptr %44, align 4, !tbaa !8
  br label %lean_inc.exit

51:                                               ; preds = %47
  %.not.i26 = icmp eq i32 %.val.i25, 0
  br i1 %.not.i26, label %lean_inc.exit, label %52

52:                                               ; preds = %51
  tail call void @lean_inc_ref_cold(ptr noundef nonnull %44) #8
  br label %lean_inc.exit

lean_inc.exit:                                    ; preds = %52, %51, %49, %lean_dec.exit16
  br i1 %.not, label %53, label %lean_dec.exit

53:                                               ; preds = %lean_inc.exit
  %54 = load i32, ptr %27, align 4, !tbaa !8
  %55 = icmp sgt i32 %54, 1
  br i1 %55, label %56, label %58, !prof !11

56:                                               ; preds = %53
  %57 = add nsw i32 %54, -1
  store i32 %57, ptr %27, align 4, !tbaa !8
  br label %lean_dec.exit

58:                                               ; preds = %53
  %.not.i20 = icmp eq i32 %54, 0
  br i1 %.not.i20, label %lean_dec.exit, label %59

59:                                               ; preds = %58
  tail call void @lean_dec_ref_cold(ptr noundef nonnull %27) #8
  br label %lean_dec.exit

lean_dec.exit:                                    ; preds = %59, %58, %56, %lean_inc.exit
  %60 = tail call ptr @l_Lean_Lsp_ModuleRefs_findRange_x3f(ptr noundef %44, ptr noundef %2, i8 noundef zeroext %3)
  br label %lean_dec.exit17

lean_dec.exit17:                                  ; preds = %15, %21, %23, %24, %lean_dec.exit
  %.0 = phi ptr [ %60, %lean_dec.exit ], [ inttoptr (i64 1 to ptr), %24 ], [ inttoptr (i64 1 to ptr), %23 ], [ inttoptr (i64 1 to ptr), %21 ], [ inttoptr (i64 1 to ptr), %15 ]
  ret ptr %.0
}